; Function Attrs: nounwind uwtable
define noalias nonnull ptr @l___private_Std_Sync_Channel_0__Std_CloseableChannel_Unbounded_isClosed___rarg___lambda__1(ptr noundef readonly captures(none) %0, ptr noundef readnone captures(none) %1, ptr noundef %2) local_unnamed_addr #1 {
  %4 = getelementptr inbounds nuw i8, ptr %0, i64 24
  %5 = load i8, ptr %4, align 1, !tbaa !18
  tail call void @lean_inc_heartbeat() #7
  %6 = tail call noalias ptr @mi_malloc_small(i64 noundef 24) #7
  %7 = icmp eq ptr %6, null
  br i1 %7, label %8, label %lean_alloc_ctor.exit

8:                                                ; preds = %3
  tail call void @lean_internal_panic_out_of_memory() #8
  unreachable

lean_alloc_ctor.exit:                             ; preds = %3
  %9 = zext i8 %5 to i64
  %10 = shl nuw nsw i64 %9, 1
  %11 = or disjoint i64 %10, 1
  %12 = inttoptr i64 %11 to ptr
  %13 = getelementptr inbounds nuw i8, ptr %6, i64 4
  store i32 1, ptr %6, align 4, !tbaa !4
  store i32 131096, ptr %13, align 4
  %14 = getelementptr inbounds nuw i8, ptr %6, i64 8
  store ptr %12, ptr %14, align 8, !tbaa !10
  %15 = getelementptr inbounds nuw i8, ptr %6, i64 16
  store ptr %2, ptr %15, align 8, !tbaa !10
  ret ptr %6
}